target datalayout = "e-m:e-p270:32:32-p271:32:32-p272:64:64-i64:64-i128:128-f80:128-n8:16:32:64-S128"
target triple = "x86_64-pc-linux-gnu"

%struct.nameData = type { [64 x i8] }
%struct.ReplicationSlot = type { i8, i8, i32, i8, i8, i32, i32, %struct.ReplicationSlotPersistentData, %struct.LWLock, %struct.ConditionVariable, i32, i64, i64, i64, i64, i64 }
%struct.ReplicationSlotPersistentData = type { %struct.nameData, i32, i32, i32, i32, i64, i32, i64, i64, i8, %struct.nameData, i8, i8 }
%struct.LWLock = type { i16, %struct.pg_atomic_uint32, %struct.proclist_head }
%struct.pg_atomic_uint32 = type { i32 }
%struct.proclist_head = type { i32, i32 }
%struct.ConditionVariable = type { i8, %struct.proclist_head }
%struct.LogicalDecodingContext = type { ptr, ptr, ptr, ptr, ptr, i8, %struct.OutputPluginCallbacks, %struct.OutputPluginOptions, ptr, ptr, ptr, ptr, ptr, ptr, ptr, i8, i8, i8, i8, i8, i64, i32, i8, i8 }
%struct.OutputPluginCallbacks = type { ptr, ptr, ptr, ptr, ptr, ptr, ptr, ptr, ptr, ptr, ptr, ptr, ptr, ptr, ptr, ptr, ptr, ptr, ptr, ptr, ptr }
%struct.OutputPluginOptions = type { i32, i8 }
%struct.LogicalErrorCallbackState = type { ptr, ptr, i64 }

@.str.70 = private unnamed_addr constant [72 x i8] c"slot \22%s\22, output plugin \22%s\22, in the %s callback, associated LSN %X/%X\00", align 1
@.str.71 = private unnamed_addr constant [50 x i8] c"slot \22%s\22, output plugin \22%s\22, in the %s callback\00", align 1

; Function Attrs: nounwind uwtable
define internal void @output_plugin_error_callback(ptr noundef %0) #0 {
  %2 = alloca ptr, align 8
  %3 = alloca ptr, align 8
  %4 = alloca i32, align 4
  store ptr %0, ptr %2, align 8
  call void @llvm.lifetime.start.p0(i64 8, ptr %3) #10
  %5 = load ptr, ptr %2, align 8
  store ptr %5, ptr %3, align 8
  %6 = load ptr, ptr %3, align 8
  %7 = getelementptr inbounds nuw %struct.LogicalErrorCallbackState, ptr %6, i32 0, i32 2
  %8 = load i64, ptr %7, align 8
  %9 = icmp ne i64 %8, 0
  br i1 %9, label %10, label %46

10:                                               ; preds = %1
  %11 = call i32 @set_errcontext_domain(ptr noundef null)
  %12 = load ptr, ptr %3, align 8
  %13 = getelementptr inbounds nuw %struct.LogicalErrorCallbackState, ptr %12, i32 0, i32 0
  %14 = load ptr, ptr %13, align 8
  %15 = getelementptr inbounds nuw %struct.LogicalDecodingContext, ptr %14, i32 0, i32 1
  %16 = load ptr, ptr %15, align 8
  %17 = getelementptr inbounds nuw %struct.ReplicationSlot, ptr %16, i32 0, i32 7
  %18 = getelementptr inbounds nuw %struct.ReplicationSlotPersistentData, ptr %17, i32 0, i32 0
  %19 = getelementptr inbounds nuw %struct.nameData, ptr %18, i32 0, i32 0
  %20 = getelementptr inbounds [64 x i8], ptr %19, i64 0, i64 0
  %21 = load ptr, ptr %3, align 8
  %22 = getelementptr inbounds nuw %struct.LogicalErrorCallbackState, ptr %21, i32 0, i32 0
  %23 = load ptr, ptr %22, align 8
  %24 = getelementptr inbounds nuw %struct.LogicalDecodingContext, ptr %23, i32 0, i32 1
  %25 = load ptr, ptr %24, align 8
  %26 = getelementptr inbounds nuw %struct.ReplicationSlot, ptr %25, i32 0, i32 7
  %27 = getelementptr inbounds nuw %struct.ReplicationSlotPersistentData, ptr %26, i32 0, i32 10
  %28 = getelementptr inbounds nuw %struct.nameData, ptr %27, i32 0, i32 0
  %29 = getelementptr inbounds [64 x i8], ptr %28, i64 0, i64 0
  %30 = load ptr, ptr %3, align 8
  %31 = getelementptr inbounds nuw %struct.LogicalErrorCallbackState, ptr %30, i32 0, i32 1
  %32 = load ptr, ptr %31, align 8
  br label %33

33:                                               ; preds = %10
  br label %34

34:                                               ; preds = %33
  br label %35

35:                                               ; preds = %34
  store i32 1, ptr %4, align 4
  %36 = load ptr, ptr %3, align 8
  %37 = getelementptr inbounds nuw %struct.LogicalErrorCallbackState, ptr %36, i32 0, i32 2
  %38 = load i64, ptr %37, align 8
  %39 = lshr i64 %38, 32
  %40 = trunc i64 %39 to i32
  %41 = load ptr, ptr %3, align 8
  %42 = getelementptr inbounds nuw %struct.LogicalErrorCallbackState, ptr %41, i32 0, i32 2
  %43 = load i64, ptr %42, align 8
  %44 = trunc i64 %43 to i32
  %45 = call i32 (ptr, ...) @errcontext_msg(ptr noundef @.str.70, ptr noundef %20, ptr noundef %29, ptr noundef %32, i32 noundef %40, i32 noundef %44)
  br label %70

46:                                               ; preds = %1
  %47 = call i32 @set_errcontext_domain(ptr noundef null)
  %48 = load ptr, ptr %3, align 8
  %49 = getelementptr inbounds nuw %struct.LogicalErrorCallbackState, ptr %48, i32 0, i32 0
  %50 = load ptr, ptr %49, align 8
  %51 = getelementptr inbounds nuw %struct.LogicalDecodingContext, ptr %50, i32 0, i32 1
  %52 = load ptr, ptr %51, align 8
  %53 = getelementptr inbounds nuw %struct.ReplicationSlot, ptr %52, i32 0, i32 7
  %54 = getelementptr inbounds nuw %struct.ReplicationSlotPersistentData, ptr %53, i32 0, i32 0
  %55 = getelementptr inbounds nuw %struct.nameData, ptr %54, i32 0, i32 0
  %56 = getelementptr inbounds [64 x i8], ptr %55, i64 0, i64 0
  %57 = load ptr, ptr %3, align 8
  %58 = getelementptr inbounds nuw %struct.LogicalErrorCallbackState, ptr %57, i32 0, i32 0
  %59 = load ptr, ptr %58, align 8
  %60 = getelementptr inbounds nuw %struct.LogicalDecodingContext, ptr %59, i32 0, i32 1
  %61 = load ptr, ptr %60, align 8
  %62 = getelementptr inbounds nuw %struct.ReplicationSlot, ptr %61, i32 0, i32 7
  %63 = getelementptr inbounds nuw %struct.ReplicationSlotPersistentData, ptr %62, i32 0, i32 10
  %64 = getelementptr inbounds nuw %struct.nameData, ptr %63, i32 0, i32 0
  %65 = getelementptr inbounds [64 x i8], ptr %64, i64 0, i64 0
  %66 = load ptr, ptr %3, align 8
  %67 = getelementptr inbounds nuw %struct.LogicalErrorCallbackState, ptr %66, i32 0, i32 1
  %68 = load ptr, ptr %67, align 8
  %69 = call i32 (ptr, ...) @errcontext_msg(ptr noundef @.str.71, ptr noundef %56, ptr noundef %65, ptr noundef %68)
  br label %70

70:                                               ; preds = %46, %35
  call void @llvm.lifetime.end.p0(i64 8, ptr %3) #10
  ret void
}