; Function Attrs: nounwind uwtable
define internal void @output_plugin_error_callback(ptr noundef readonly captures(none) %0) #0 {
  %2 = getelementptr inbounds nuw i8, ptr %0, i64 16
  %3 = load i64, ptr %2, align 8
  %.not = icmp eq i64 %3, 0
  %4 = tail call i32 @set_errcontext_domain(ptr noundef null) #10
  %5 = load ptr, ptr %0, align 8
  %6 = getelementptr inbounds nuw i8, ptr %5, i64 8
  %7 = load ptr, ptr %6, align 8
  %8 = getelementptr inbounds nuw i8, ptr %7, i64 24
  %9 = getelementptr inbounds nuw i8, ptr %7, i64 137
  %10 = getelementptr inbounds nuw i8, ptr %0, i64 8
  %11 = load ptr, ptr %10, align 8
  br i1 %.not, label %18, label %12

12:                                               ; preds = %1
  %13 = load i64, ptr %2, align 8
  %14 = lshr i64 %13, 32
  %15 = trunc nuw i64 %14 to i32
  %16 = trunc i64 %13 to i32
  %17 = tail call i32 (ptr, ...) @errcontext_msg(ptr noundef nonnull @.str.70, ptr noundef nonnull %8, ptr noundef nonnull %9, ptr noundef %11, i32 noundef %15, i32 noundef %16) #10
  br label %20

18:                                               ; preds = %1
  %19 = tail call i32 (ptr, ...) @errcontext_msg(ptr noundef nonnull @.str.71, ptr noundef nonnull %8, ptr noundef nonnull %9, ptr noundef %11) #10
  br label %20

20:                                               ; preds = %18, %12
  ret void
}